target datalayout = "e-m:e-p270:32:32-p271:32:32-p272:64:64-i64:64-i128:128-f80:128-n8:16:32:64-S128"
target triple = "x86_64-unknown-linux-gnu"

%struct.aiScene = type { i32, ptr, i32, ptr, i32, ptr, i32, ptr, i32, ptr, i32, ptr, i32, ptr, ptr, %struct.aiString, i32, ptr, ptr }
%struct.aiString = type { i32, [1024 x i8] }

@.str = private unnamed_addr constant [28 x i8] c"GenFaceNormalsProcess begin\00", align 1
@.str.1 = private unnamed_addr constant [83 x i8] c"Post-processing order mismatch: expecting pseudo-indexed (\22verbose\22) vertices here\00", align 1
@_ZTI17DeadlyImportError = linkonce_odr constant { ptr, ptr, ptr } { ptr getelementptr inbounds (ptr, ptr @_ZTVN10__cxxabiv120__si_class_type_infoE, i64 2), ptr @_ZTS17DeadlyImportError, ptr @_ZTI15DeadlyErrorBase }, comdat, align 8
@.str.2 = private unnamed_addr constant [66 x i8] c"GenFaceNormalsProcess finished. Face normals have been calculated\00", align 1
@.str.3 = private unnamed_addr constant [58 x i8] c"GenFaceNormalsProcess finished. Normals are already there\00", align 1

; Function Attrs: mustprogress uwtable
define hidden void @_ZN6Assimp21GenFaceNormalsProcess7ExecuteEP7aiScene(ptr noundef nonnull align 8 dereferenceable(27) %this, ptr noundef %pScene) unnamed_addr #2 align 2 personality ptr @__gxx_personality_v0 {
entry:
  %this.addr = alloca ptr, align 8
  %pScene.addr = alloca ptr, align 8
  %exn.slot = alloca ptr, align 8
  %ehselector.slot = alloca i32, align 4
  %bHas = alloca i8, align 1
  %a = alloca i32, align 4
  store ptr %this, ptr %this.addr, align 8
  store ptr %pScene, ptr %pScene.addr, align 8
  %this1 = load ptr, ptr %this.addr, align 8
  %call = call noundef ptr @_ZN6Assimp13DefaultLogger3getEv()
  call void @_ZN6Assimp6Logger5debugEPKc(ptr noundef nonnull align 8 dereferenceable(12) %call, ptr noundef @.str)
  %0 = load ptr, ptr %pScene.addr, align 8
  %mFlags = getelementptr inbounds %struct.aiScene, ptr %0, i32 0, i32 0
  %1 = load i32, ptr %mFlags, align 8
  %and = and i32 %1, 8
  %tobool = icmp ne i32 %and, 0
  br i1 %tobool, label %if.then, label %if.end

if.then:                                          ; preds = %entry
  %exception = call ptr @__cxa_allocate_exception(i64 16) #11
  invoke void @_ZN17DeadlyImportErrorC2EPKc(ptr noundef nonnull align 8 dereferenceable(16) %exception, ptr noundef @.str.1)
          to label %invoke.cont unwind label %lpad

invoke.cont:                                      ; preds = %if.then
  call void @__cxa_throw(ptr %exception, ptr @_ZTI17DeadlyImportError, ptr @_ZN17DeadlyImportErrorD2Ev) #12
  unreachable

lpad:                                             ; preds = %if.then
  %2 = landingpad { ptr, i32 }
          cleanup
  %3 = extractvalue { ptr, i32 } %2, 0
  store ptr %3, ptr %exn.slot, align 8
  %4 = extractvalue { ptr, i32 } %2, 1
  store i32 %4, ptr %ehselector.slot, align 4
  call void @__cxa_free_exception(ptr %exception) #11
  br label %eh.resume

if.end:                                           ; preds = %entry
  store i8 0, ptr %bHas, align 1
  store i32 0, ptr %a, align 4
  br label %for.cond

for.cond:                                         ; preds = %for.inc, %if.end
  %5 = load i32, ptr %a, align 4
  %6 = load ptr, ptr %pScene.addr, align 8
  %mNumMeshes = getelementptr inbounds %struct.aiScene, ptr %6, i32 0, i32 2
  %7 = load i32, ptr %mNumMeshes, align 8
  %cmp = icmp ult i32 %5, %7
  br i1 %cmp, label %for.body, label %for.end

for.body:                                         ; preds = %for.cond
  %8 = load ptr, ptr %pScene.addr, align 8
  %mMeshes = getelementptr inbounds %struct.aiScene, ptr %8, i32 0, i32 3
  %9 = load ptr, ptr %mMeshes, align 8
  %10 = load i32, ptr %a, align 4
  %idxprom = zext i32 %10 to i64
  %arrayidx = getelementptr inbounds ptr, ptr %9, i64 %idxprom
  %11 = load ptr, ptr %arrayidx, align 8
  %call2 = call noundef zeroext i1 @_ZN6Assimp21GenFaceNormalsProcess18GenMeshFaceNormalsEP6aiMesh(ptr noundef nonnull align 8 dereferenceable(27) %this1, ptr noundef %11)
  br i1 %call2, label %if.then3, label %if.end4

if.then3:                                         ; preds = %for.body
  store i8 1, ptr %bHas, align 1
  br label %if.end4

if.end4:                                          ; preds = %if.then3, %for.body
  br label %for.inc

for.inc:                                          ; preds = %if.end4
  %12 = load i32, ptr %a, align 4
  %inc = add i32 %12, 1
  store i32 %inc, ptr %a, align 4
  br label %for.cond, !llvm.loop !4

for.end:                                          ; preds = %for.cond
  %13 = load i8, ptr %bHas, align 1
  %tobool5 = trunc i8 %13 to i1
  br i1 %tobool5, label %if.then6, label %if.else

if.then6:                                         ; preds = %for.end
  %call7 = call noundef ptr @_ZN6Assimp13DefaultLogger3getEv()
  call void @_ZN6Assimp6Logger4infoEPKc(ptr noundef nonnull align 8 dereferenceable(12) %call7, ptr noundef @.str.2)
  br label %if.end9

if.else:                                          ; preds = %for.end
  %call8 = call noundef ptr @_ZN6Assimp13DefaultLogger3getEv()
  call void @_ZN6Assimp6Logger5debugEPKc(ptr noundef nonnull align 8 dereferenceable(12) %call8, ptr noundef @.str.3)
  br label %if.end9

if.end9:                                          ; preds = %if.else, %if.then6
  ret void

eh.resume:                                        ; preds = %lpad
  %exn = load ptr, ptr %exn.slot, align 8
  %sel = load i32, ptr %ehselector.slot, align 4
  %lpad.val = insertvalue { ptr, i32 } poison, ptr %exn, 0
  %lpad.val10 = insertvalue { ptr, i32 } %lpad.val, i32 %sel, 1
  resume { ptr, i32 } %lpad.val10
}