; Function Attrs: mustprogress uwtable
define hidden void @_ZN6Assimp21GenFaceNormalsProcess7ExecuteEP7aiScene(ptr nocapture noundef nonnull readonly align 8 dereferenceable(27) %this, ptr nocapture noundef readonly %pScene) unnamed_addr #1 align 2 personality ptr @__gxx_personality_v0 {
entry:
  %call = tail call noundef ptr @_ZN6Assimp13DefaultLogger3getEv()
  tail call void @_ZN6Assimp6Logger5debugEPKc(ptr noundef nonnull align 8 dereferenceable(12) %call, ptr noundef nonnull @.str)
  %0 = load i32, ptr %pScene, align 8
  %and = and i32 %0, 8
  %tobool.not = icmp eq i32 %and, 0
  br i1 %tobool.not, label %for.cond.preheader, label %if.then

for.cond.preheader:                               ; preds = %entry
  %mNumMeshes = getelementptr inbounds i8, ptr %pScene, i64 16
  %1 = load i32, ptr %mNumMeshes, align 8
  %cmp5.not = icmp eq i32 %1, 0
  br i1 %cmp5.not, label %if.else, label %for.body.lr.ph

for.body.lr.ph:                                   ; preds = %for.cond.preheader
  %mMeshes = getelementptr inbounds i8, ptr %pScene, i64 24
  br label %for.body

if.then:                                          ; preds = %entry
  %exception = tail call ptr @__cxa_allocate_exception(i64 16) #12
  invoke void @_ZN17DeadlyImportErrorC2EPKc(ptr noundef nonnull align 8 dereferenceable(16) %exception, ptr noundef nonnull @.str.1)
          to label %invoke.cont unwind label %lpad

invoke.cont:                                      ; preds = %if.then
  tail call void @__cxa_throw(ptr nonnull %exception, ptr nonnull @_ZTI17DeadlyImportError, ptr nonnull @_ZN17DeadlyImportErrorD2Ev) #13
  unreachable

lpad:                                             ; preds = %if.then
  %2 = landingpad { ptr, i32 }
          cleanup
  tail call void @__cxa_free_exception(ptr %exception) #12
  resume { ptr, i32 } %2

for.body:                                         ; preds = %for.body.lr.ph, %for.body
  %indvars.iv = phi i64 [ 0, %for.body.lr.ph ], [ %indvars.iv.next, %for.body ]
  %bHas.06 = phi i8 [ 0, %for.body.lr.ph ], [ %spec.select, %for.body ]
  %3 = load ptr, ptr %mMeshes, align 8
  %arrayidx = getelementptr inbounds ptr, ptr %3, i64 %indvars.iv
  %4 = load ptr, ptr %arrayidx, align 8
  %call2 = tail call noundef zeroext i1 @_ZN6Assimp21GenFaceNormalsProcess18GenMeshFaceNormalsEP6aiMesh(ptr noundef nonnull align 8 dereferenceable(27) %this, ptr noundef %4)
  %spec.select = select i1 %call2, i8 1, i8 %bHas.06
  %indvars.iv.next = add nuw nsw i64 %indvars.iv, 1
  %5 = load i32, ptr %mNumMeshes, align 8
  %6 = zext i32 %5 to i64
  %cmp = icmp ult i64 %indvars.iv.next, %6
  br i1 %cmp, label %for.body, label %for.end, !llvm.loop !4

for.end:                                          ; preds = %for.body
  %7 = and i8 %spec.select, 1
  %8 = icmp eq i8 %7, 0
  br i1 %8, label %if.else, label %if.then6

if.then6:                                         ; preds = %for.end
  %call7 = tail call noundef ptr @_ZN6Assimp13DefaultLogger3getEv()
  tail call void @_ZN6Assimp6Logger4infoEPKc(ptr noundef nonnull align 8 dereferenceable(12) %call7, ptr noundef nonnull @.str.2)
  br label %if.end9

if.else:                                          ; preds = %for.cond.preheader, %for.end
  %call8 = tail call noundef ptr @_ZN6Assimp13DefaultLogger3getEv()
  tail call void @_ZN6Assimp6Logger5debugEPKc(ptr noundef nonnull align 8 dereferenceable(12) %call8, ptr noundef nonnull @.str.3)
  br label %if.end9

if.end9:                                          ; preds = %if.else, %if.then6
  ret void
}